; Function Attrs: mustprogress uwtable
define noundef zeroext i1 @_ZNK5arrow5Array12ApproxEqualsERKSt10shared_ptrIS0_ERKNS_12EqualOptionsE(ptr noundef nonnull align 8 dereferenceable(32) %0, ptr noundef nonnull readonly align 8 captures(none) dereferenceable(16) %1, ptr noundef nonnull align 8 dereferenceable(24) %2) local_unnamed_addr #1 align 2 {
  %4 = load ptr, ptr %1, align 8, !tbaa !121
  %.not = icmp eq ptr %4, null
  br i1 %.not, label %7, label %5

5:                                                ; preds = %3
  %6 = tail call noundef zeroext i1 @_ZN5arrow17ArrayApproxEqualsERKNS_5ArrayES2_RKNS_12EqualOptionsE(ptr noundef nonnull align 8 dereferenceable(32) %0, ptr noundef nonnull align 8 dereferenceable(32) %4, ptr noundef nonnull align 8 dereferenceable(24) %2)
  br label %7

7:                                                ; preds = %3, %5
  %.0 = phi i1 [ %6, %5 ], [ false, %3 ]
  ret i1 %.0
}